; Function Attrs: nounwind uwtable
define internal void @callReplyAttribute(ptr noundef %0, ptr noundef initializes((72, 80)) %1, i64 noundef %2, ptr noundef %3) #0 {
  %5 = tail call noalias dereferenceable_or_null(80) ptr @zcalloc(i64 noundef 80) #9
  %6 = getelementptr inbounds nuw i8, ptr %1, i64 72
  store ptr %5, ptr %6, align 8, !tbaa !23
  %7 = getelementptr inbounds nuw i8, ptr %5, i64 40
  %8 = getelementptr inbounds nuw i8, ptr %5, i64 32
  store i32 11, ptr %8, align 8, !tbaa !15
  store i64 %2, ptr %7, align 8, !tbaa !18
  %9 = shl i64 %2, 1
  %10 = mul i64 %2, 160
  %11 = tail call noalias ptr @zcalloc(i64 noundef %10) #9
  %12 = getelementptr inbounds nuw i8, ptr %5, i64 48
  store ptr %11, ptr %12, align 8, !tbaa !19
  %.not36.i = icmp eq i64 %9, 0
  br i1 %.not36.i, label %callReplyParseCollection.exit, label %.preheader.lr.ph.i

.preheader.lr.ph.i:                               ; preds = %4
  %13 = getelementptr inbounds nuw i8, ptr %5, i64 36
  br label %.preheader.i

.preheader.i:                                     ; preds = %15, %.preheader.lr.ph.i
  %14 = phi ptr [ %11, %.preheader.lr.ph.i ], [ %31, %15 ]
  %.03235.i = phi i64 [ 0, %.preheader.lr.ph.i ], [ %16, %15 ]
  br label %18

15:                                               ; preds = %38
  %16 = add nuw i64 %.03235.i, 2
  %17 = icmp ult i64 %16, %9
  br i1 %17, label %.preheader.i, label %callReplyParseCollection.exit, !llvm.loop !41

18:                                               ; preds = %38, %.preheader.i
  %19 = phi ptr [ %14, %.preheader.i ], [ %31, %38 ]
  %.034.i = phi i64 [ 0, %.preheader.i ], [ %39, %38 ]
  %20 = load ptr, ptr %5, align 8, !tbaa !24
  %21 = add nuw nsw i64 %.034.i, %.03235.i
  %22 = getelementptr inbounds nuw %struct.CallReply, ptr %19, i64 %21
  store ptr %20, ptr %22, align 8, !tbaa !24
  %23 = load ptr, ptr %12, align 8, !tbaa !19
  %24 = getelementptr inbounds nuw %struct.CallReply, ptr %23, i64 %.03235.i
  %25 = getelementptr inbounds nuw %struct.CallReply, ptr %24, i64 %.034.i
  %26 = tail call i32 @parseReply(ptr noundef %0, ptr noundef %25) #8
  %27 = load ptr, ptr %12, align 8, !tbaa !19
  %28 = getelementptr inbounds nuw %struct.CallReply, ptr %27, i64 %21, i32 5
  %29 = load i32, ptr %28, align 4, !tbaa !5
  %30 = or i32 %29, 2
  store i32 %30, ptr %28, align 4, !tbaa !5
  %31 = load ptr, ptr %12, align 8, !tbaa !19
  %32 = getelementptr inbounds nuw %struct.CallReply, ptr %31, i64 %21, i32 5
  %33 = load i32, ptr %32, align 4, !tbaa !5
  %34 = and i32 %33, 4
  %.not.i = icmp eq i32 %34, 0
  br i1 %.not.i, label %38, label %35

35:                                               ; preds = %18
  %36 = load i32, ptr %13, align 4, !tbaa !5
  %37 = or i32 %36, 4
  store i32 %37, ptr %13, align 4, !tbaa !5
  br label %38

38:                                               ; preds = %35, %18
  %39 = add nuw nsw i64 %.034.i, 1
  %exitcond.not.i = icmp eq i64 %39, 2
  br i1 %exitcond.not.i, label %15, label %18, !llvm.loop !42

callReplyParseCollection.exit:                    ; preds = %15, %4
  %40 = getelementptr inbounds nuw i8, ptr %5, i64 16
  store ptr %3, ptr %40, align 8, !tbaa !25
  %41 = load ptr, ptr %0, align 8, !tbaa !26
  %42 = ptrtoint ptr %41 to i64
  %43 = ptrtoint ptr %3 to i64
  %44 = sub i64 %42, %43
  %45 = getelementptr inbounds nuw i8, ptr %5, i64 24
  store i64 %44, ptr %45, align 8, !tbaa !34
  %46 = load ptr, ptr %6, align 8, !tbaa !23
  %47 = getelementptr inbounds nuw i8, ptr %46, i64 36
  %48 = load i32, ptr %47, align 4, !tbaa !5
  %49 = or i32 %48, 6
  store i32 %49, ptr %47, align 4, !tbaa !5
  %50 = load ptr, ptr %1, align 8, !tbaa !24
  store ptr %50, ptr %46, align 8, !tbaa !24
  %51 = tail call i32 @parseReply(ptr noundef nonnull %0, ptr noundef nonnull %1) #8
  %52 = getelementptr inbounds nuw i8, ptr %1, i64 16
  store ptr %3, ptr %52, align 8, !tbaa !25
  %53 = load ptr, ptr %0, align 8, !tbaa !26
  %54 = ptrtoint ptr %53 to i64
  %55 = sub i64 %54, %43
  %56 = getelementptr inbounds nuw i8, ptr %1, i64 24
  store i64 %55, ptr %56, align 8, !tbaa !34
  %57 = getelementptr inbounds nuw i8, ptr %1, i64 36
  %58 = load i32, ptr %57, align 4, !tbaa !5
  %59 = or i32 %58, 4
  store i32 %59, ptr %57, align 4, !tbaa !5
  ret void
}